target datalayout = "e-m:e-p270:32:32-p271:32:32-p272:64:64-i64:64-i128:128-f80:128-n8:16:32:64-S128"
target triple = "x86_64-pc-linux-gnu"

@mpd_setminalloc.minalloc_is_set = internal global i32 0, align 4
@stderr = external global ptr, align 8
@.str = private unnamed_addr constant [17 x i8] c"%s:%d: warning: \00", align 1
@.str.1 = private unnamed_addr constant [47 x i8] c"../cpython/Modules/_decimal/libmpdec/context.c\00", align 1
@.str.2 = private unnamed_addr constant [69 x i8] c"mpd_setminalloc: ignoring request to set MPD_MINALLOC a second time\0A\00", align 1
@.str.3 = private unnamed_addr constant [15 x i8] c"%s:%d: error: \00", align 1
@.str.4 = private unnamed_addr constant [31 x i8] c"illegal value for MPD_MINALLOC\00", align 1
@MPD_MINALLOC = external hidden global i64, align 8

; Function Attrs: nounwind uwtable
define hidden void @mpd_setminalloc(i64 noundef %0) #0 {
  %2 = alloca i64, align 8
  store i64 %0, ptr %2, align 8, !tbaa !8
  %3 = load i32, ptr @mpd_setminalloc.minalloc_is_set, align 4, !tbaa !10
  %4 = icmp ne i32 %3, 0
  br i1 %4, label %5, label %14

5:                                                ; preds = %1
  br label %6

6:                                                ; preds = %5
  %7 = load ptr, ptr @stderr, align 8, !tbaa !12
  %8 = call i32 (ptr, ptr, ...) @fprintf(ptr noundef %7, ptr noundef @.str, ptr noundef @.str.1, i32 noundef 57) #5
  %9 = load ptr, ptr @stderr, align 8, !tbaa !12
  %10 = call i32 (ptr, ptr, ...) @fprintf(ptr noundef %9, ptr noundef @.str.2) #5
  %11 = load ptr, ptr @stderr, align 8, !tbaa !12
  %12 = call i32 @fputc(i32 noundef 10, ptr noundef %11)
  br label %13

13:                                               ; preds = %6
  br label %31

14:                                               ; preds = %1
  %15 = load i64, ptr %2, align 8, !tbaa !8
  %16 = icmp slt i64 %15, 2
  br i1 %16, label %20, label %17

17:                                               ; preds = %14
  %18 = load i64, ptr %2, align 8, !tbaa !8
  %19 = icmp sgt i64 %18, 64
  br i1 %19, label %20, label %29

20:                                               ; preds = %17, %14
  br label %21

21:                                               ; preds = %20
  %22 = load ptr, ptr @stderr, align 8, !tbaa !12
  %23 = call i32 (ptr, ptr, ...) @fprintf(ptr noundef %22, ptr noundef @.str.3, ptr noundef @.str.1, i32 noundef 61) #5
  %24 = load ptr, ptr @stderr, align 8, !tbaa !12
  %25 = call i32 (ptr, ptr, ...) @fprintf(ptr noundef %24, ptr noundef @.str.4) #5
  %26 = load ptr, ptr @stderr, align 8, !tbaa !12
  %27 = call i32 @fputc(i32 noundef 10, ptr noundef %26)
  call void @abort() #6
  unreachable

28:                                               ; No predecessors!
  br label %29

29:                                               ; preds = %28, %17
  %30 = load i64, ptr %2, align 8, !tbaa !8
  store i64 %30, ptr @MPD_MINALLOC, align 8, !tbaa !8
  store i32 1, ptr @mpd_setminalloc.minalloc_is_set, align 4, !tbaa !10
  br label %31

31:                                               ; preds = %29, %13
  ret void
}