; Function Attrs: nofree nounwind uwtable
define hidden void @mpd_setminalloc(i64 noundef %0) local_unnamed_addr #2 {
  %.b = load i1, ptr @mpd_setminalloc.minalloc_is_set, align 4
  br i1 %.b, label %2, label %9

2:                                                ; preds = %1
  %3 = load ptr, ptr @stderr, align 8, !tbaa !3
  %4 = tail call i32 (ptr, ptr, ...) @fprintf(ptr noundef %3, ptr noundef nonnull @.str, ptr noundef nonnull @.str.1, i32 noundef 57) #10
  %5 = load ptr, ptr @stderr, align 8, !tbaa !3
  %6 = tail call i64 @fwrite(ptr nonnull @.str.2, i64 68, i64 1, ptr %5) #11
  %7 = load ptr, ptr @stderr, align 8, !tbaa !3
  %8 = tail call i32 @fputc(i32 noundef 10, ptr noundef %7)
  br label %19

9:                                                ; preds = %1
  %10 = add i64 %0, -65
  %or.cond = icmp ult i64 %10, -63
  br i1 %or.cond, label %11, label %18

11:                                               ; preds = %9
  %12 = load ptr, ptr @stderr, align 8, !tbaa !3
  %13 = tail call i32 (ptr, ptr, ...) @fprintf(ptr noundef %12, ptr noundef nonnull @.str.3, ptr noundef nonnull @.str.1, i32 noundef 61) #10
  %14 = load ptr, ptr @stderr, align 8, !tbaa !3
  %15 = tail call i64 @fwrite(ptr nonnull @.str.4, i64 30, i64 1, ptr %14) #11
  %16 = load ptr, ptr @stderr, align 8, !tbaa !3
  %17 = tail call i32 @fputc(i32 noundef 10, ptr noundef %16)
  tail call void @abort() #12
  unreachable

18:                                               ; preds = %9
  store i64 %0, ptr @MPD_MINALLOC, align 8, !tbaa !8
  store i1 true, ptr @mpd_setminalloc.minalloc_is_set, align 4
  br label %19

19:                                               ; preds = %18, %2
  ret void
}